; Function Attrs: mustprogress nofree norecurse nosync nounwind willreturn memory(argmem: write) uwtable
define void @_ZN5arrow10FutureImplC2Ev(ptr noundef nonnull writeonly align 8 captures(none) dereferenceable(72) initializes((0, 25), (32, 72)) %0) unnamed_addr #5 align 2 personality ptr @__gxx_personality_v0 {
  %2 = getelementptr inbounds nuw i8, ptr %0, i64 8
  tail call void @llvm.memset.p0.i64(ptr noundef nonnull align 8 dereferenceable(16) %2, i8 0, i64 16, i1 false)
  store ptr getelementptr inbounds nuw inrange(-16, 16) (i8, ptr @_ZTVN5arrow10FutureImplE, i64 16), ptr %0, align 8, !tbaa !6
  %3 = getelementptr inbounds nuw i8, ptr %0, i64 24
  store i8 0, ptr %3, align 8, !tbaa !14
  %4 = getelementptr inbounds nuw i8, ptr %0, i64 32
  tail call void @llvm.memset.p0.i64(ptr noundef nonnull align 8 dereferenceable(40) %4, i8 0, i64 40, i1 false)
  ret void
}